#include <math.h>
#include <stdio.h>
#include <stdlib.h>
#include <string.h>

int main()
{
	int i,n,s=0;
	scanf("%d",&n);
for(i=0;i<=n;i++)
{
s=s+i*i;

if(i%7==0||i%10==7||i>69&&i<80)
s=s-i*i;
}
printf("%d",s);
return 0;
}