; ModuleID = '30/118.c'
source_filename = "30/118.c"
target datalayout = "e-m:e-p270:32:32-p271:32:32-p272:64:64-i64:64-f80:128-n8:16:32:64-S128"
target triple = "x86_64-pc-linux-gnu"

@.str = private unnamed_addr constant [3 x i8] c"%d\00", align 1

; Function Attrs: noinline nounwind uwtable
define dso_local i32 @main() #0 {
  %1 = alloca i32, align 4
  %2 = alloca i32, align 4
  %3 = alloca i32, align 4
  %4 = alloca i32, align 4
  store i32 0, i32* %1, align 4
  store i32 0, i32* %4, align 4
  %5 = call i32 (i8*, ...) @__isoc99_scanf(i8* getelementptr inbounds ([3 x i8], [3 x i8]* @.str, i64 0, i64 0), i32* %3)
  store i32 0, i32* %2, align 4
  br label %6

6:                                                ; preds = %36, %0
  %7 = load i32, i32* %2, align 4
  %8 = load i32, i32* %3, align 4
  %9 = icmp sle i32 %7, %8
  br i1 %9, label %10, label %39

10:                                               ; preds = %6
  %11 = load i32, i32* %4, align 4
  %12 = load i32, i32* %2, align 4
  %13 = load i32, i32* %2, align 4
  %14 = mul nsw i32 %12, %13
  %15 = add nsw i32 %11, %14
  store i32 %15, i32* %4, align 4
  %16 = load i32, i32* %2, align 4
  %17 = srem i32 %16, 7
  %18 = icmp eq i32 %17, 0
  br i1 %18, label %29, label %19

19:                                               ; preds = %10
  %20 = load i32, i32* %2, align 4
  %21 = srem i32 %20, 10
  %22 = icmp eq i32 %21, 7
  br i1 %22, label %29, label %23

23:                                               ; preds = %19
  %24 = load i32, i32* %2, align 4
  %25 = icmp sgt i32 %24, 69
  br i1 %25, label %26, label %35

26:                                               ; preds = %23
  %27 = load i32, i32* %2, align 4
  %28 = icmp slt i32 %27, 80
  br i1 %28, label %29, label %35

29:                                               ; preds = %26, %19, %10
  %30 = load i32, i32* %4, align 4
  %31 = load i32, i32* %2, align 4
  %32 = load i32, i32* %2, align 4
  %33 = mul nsw i32 %31, %32
  %34 = sub nsw i32 %30, %33
  store i32 %34, i32* %4, align 4
  br label %35

35:                                               ; preds = %29, %26, %23
  br label %36

36:                                               ; preds = %35
  %37 = load i32, i32* %2, align 4
  %38 = add nsw i32 %37, 1
  store i32 %38, i32* %2, align 4
  br label %6

39:                                               ; preds = %6
  %40 = load i32, i32* %4, align 4
  %41 = call i32 (i8*, ...) @printf(i8* getelementptr inbounds ([3 x i8], [3 x i8]* @.str, i64 0, i64 0), i32 %40)
  ret i32 0
}

declare dso_local i32 @__isoc99_scanf(i8*, ...) #1

declare dso_local i32 @printf(i8*, ...) #1


!llvm.module.flags = !{!0}
!llvm.ident = !{!1}

!0 = !{i32 1, !"wchar_size", i32 4}
!1 = !{!"clang version 10.0.0-4ubuntu1 "}
